target datalayout = "e-m:e-p270:32:32-p271:32:32-p272:64:64-i64:64-i128:128-f80:128-n8:16:32:64-S128"
target triple = "x86_64-pc-linux-gnu"

%struct.PJconsts = type { ptr, ptr, ptr, ptr, ptr, ptr, ptr, ptr, ptr, ptr, ptr, ptr, i32, ptr, ptr, ptr, ptr, ptr, ptr, ptr, ptr, double, double, double, double, double, double, double, double, double, double, double, double, double, double, double, double, double, double, double, double, double, double, i32, i32, i32, i32, i32, i32, i32, i32, i32, i32, i32, ptr, ptr, ptr, ptr, ptr, ptr, double, double, double, double, double, double, double, double, double, double, double, i32, [7 x double], i32, ptr, ptr, double, double, i32, [4 x i8], %"class.std::shared_ptr", i8, double, i8, %"class.std::__cxx11::basic_string", %"class.std::__cxx11::basic_string", %"class.std::__cxx11::basic_string", i8, %"class.std::vector", i32, %"class.std::vector.3", i32, i8, i8, i8, ptr }
%"class.std::shared_ptr" = type { %"class.std::__shared_ptr" }
%"class.std::__shared_ptr" = type { ptr, %"class.std::__shared_count" }
%"class.std::__shared_count" = type { ptr }
%"class.std::__cxx11::basic_string" = type { %"struct.std::__cxx11::basic_string<char>::_Alloc_hider", i64, %union.anon }
%"struct.std::__cxx11::basic_string<char>::_Alloc_hider" = type { ptr }
%union.anon = type { i64, [8 x i8] }
%"class.std::vector" = type { %"struct.std::_Vector_base" }
%"struct.std::_Vector_base" = type { %"struct.std::_Vector_base<osgeo::proj::operation::GridDescription, std::allocator<osgeo::proj::operation::GridDescription>>::_Vector_impl" }
%"struct.std::_Vector_base<osgeo::proj::operation::GridDescription, std::allocator<osgeo::proj::operation::GridDescription>>::_Vector_impl" = type { %"struct.std::_Vector_base<osgeo::proj::operation::GridDescription, std::allocator<osgeo::proj::operation::GridDescription>>::_Vector_impl_data" }
%"struct.std::_Vector_base<osgeo::proj::operation::GridDescription, std::allocator<osgeo::proj::operation::GridDescription>>::_Vector_impl_data" = type { ptr, ptr, ptr }
%"class.std::vector.3" = type { %"struct.std::_Vector_base.4" }
%"struct.std::_Vector_base.4" = type { %"struct.std::_Vector_base<PJCoordOperation, std::allocator<PJCoordOperation>>::_Vector_impl" }
%"struct.std::_Vector_base<PJCoordOperation, std::allocator<PJCoordOperation>>::_Vector_impl" = type { %"struct.std::_Vector_base<PJCoordOperation, std::allocator<PJCoordOperation>>::_Vector_impl_data" }
%"struct.std::_Vector_base<PJCoordOperation, std::allocator<PJCoordOperation>>::_Vector_impl_data" = type { ptr, ptr, ptr }
%struct.PJ_LP = type { double, double }
%struct.PJ_XY = type { double, double }

@_ZL9des_fahey = internal constant [17 x i8] c"Fahey\0A\09Pcyl, Sph\00", align 16
@pj_s_fahey = hidden constant ptr @_ZL9des_fahey, align 8
@.str = private unnamed_addr constant [6 x i8] c"fahey\00", align 1

; Function Attrs: mustprogress uwtable
define hidden ptr @pj_fahey(ptr noundef %0) #0 {
  %2 = alloca ptr, align 8
  %3 = alloca ptr, align 8
  store ptr %0, ptr %3, align 8, !tbaa !3
  %4 = load ptr, ptr %3, align 8, !tbaa !3
  %5 = icmp ne ptr %4, null
  br i1 %5, label %6, label %9

6:                                                ; preds = %1
  %7 = load ptr, ptr %3, align 8, !tbaa !3
  %8 = call noundef ptr @_Z34pj_projection_specific_setup_faheyP8PJconsts(ptr noundef %7)
  store ptr %8, ptr %2, align 8
  br label %26

9:                                                ; preds = %1
  %10 = call noundef ptr @_Z6pj_newv()
  store ptr %10, ptr %3, align 8, !tbaa !3
  %11 = load ptr, ptr %3, align 8, !tbaa !3
  %12 = icmp eq ptr null, %11
  br i1 %12, label %13, label %14

13:                                               ; preds = %9
  store ptr null, ptr %2, align 8
  br label %26

14:                                               ; preds = %9
  %15 = load ptr, ptr %3, align 8, !tbaa !3
  %16 = getelementptr inbounds nuw %struct.PJconsts, ptr %15, i32 0, i32 1
  store ptr @.str, ptr %16, align 8, !tbaa !8
  %17 = load ptr, ptr %3, align 8, !tbaa !3
  %18 = getelementptr inbounds nuw %struct.PJconsts, ptr %17, i32 0, i32 2
  store ptr @_ZL9des_fahey, ptr %18, align 8, !tbaa !37
  %19 = load ptr, ptr %3, align 8, !tbaa !3
  %20 = getelementptr inbounds nuw %struct.PJconsts, ptr %19, i32 0, i32 47
  store i32 1, ptr %20, align 8, !tbaa !38
  %21 = load ptr, ptr %3, align 8, !tbaa !3
  %22 = getelementptr inbounds nuw %struct.PJconsts, ptr %21, i32 0, i32 52
  store i32 4, ptr %22, align 4, !tbaa !39
  %23 = load ptr, ptr %3, align 8, !tbaa !3
  %24 = getelementptr inbounds nuw %struct.PJconsts, ptr %23, i32 0, i32 53
  store i32 1, ptr %24, align 8, !tbaa !40
  %25 = load ptr, ptr %3, align 8, !tbaa !3
  store ptr %25, ptr %2, align 8
  br label %26

26:                                               ; preds = %14, %13, %6
  %27 = load ptr, ptr %2, align 8
  ret ptr %27
}

; Function Attrs: mustprogress nounwind uwtable
define hidden noundef ptr @_Z34pj_projection_specific_setup_faheyP8PJconsts(ptr noundef %0) #1 {
  %2 = alloca ptr, align 8
  store ptr %0, ptr %2, align 8, !tbaa !3
  %3 = load ptr, ptr %2, align 8, !tbaa !3
  %4 = getelementptr inbounds nuw %struct.PJconsts, ptr %3, i32 0, i32 27
  store double 0.000000e+00, ptr %4, align 8, !tbaa !41
  %5 = load ptr, ptr %2, align 8, !tbaa !3
  %6 = getelementptr inbounds nuw %struct.PJconsts, ptr %5, i32 0, i32 14
  store ptr @_ZL15fahey_s_inverse5PJ_XYP8PJconsts, ptr %6, align 8, !tbaa !42
  %7 = load ptr, ptr %2, align 8, !tbaa !3
  %8 = getelementptr inbounds nuw %struct.PJconsts, ptr %7, i32 0, i32 13
  store ptr @_ZL15fahey_s_forward5PJ_LPP8PJconsts, ptr %8, align 8, !tbaa !43
  %9 = load ptr, ptr %2, align 8, !tbaa !3
  ret ptr %9
}

declare noundef ptr @_Z6pj_newv() #2

; Function Attrs: mustprogress nounwind uwtable
define internal { double, double } @_ZL15fahey_s_inverse5PJ_XYP8PJconsts(double %0, double %1, ptr noundef %2) #1 {
  %4 = alloca %struct.PJ_LP, align 8
  %5 = alloca %struct.PJ_XY, align 8
  %6 = alloca ptr, align 8
  %7 = getelementptr inbounds nuw { double, double }, ptr %5, i32 0, i32 0
  store double %0, ptr %7, align 8
  %8 = getelementptr inbounds nuw { double, double }, ptr %5, i32 0, i32 1
  store double %1, ptr %8, align 8
  store ptr %2, ptr %6, align 8, !tbaa !3
  call void @llvm.memset.p0.i64(ptr align 8 %4, i8 0, i64 16, i1 false)
  %9 = getelementptr inbounds nuw %struct.PJ_XY, ptr %5, i32 0, i32 1
  %10 = load double, ptr %9, align 8, !tbaa !44
  %11 = fdiv double %10, 0x3FFD1B3F20A73F75
  store double %11, ptr %9, align 8, !tbaa !44
  %12 = getelementptr inbounds nuw %struct.PJ_XY, ptr %5, i32 0, i32 1
  %13 = load double, ptr %12, align 8, !tbaa !44
  %14 = call double @atan(double noundef %13) #6, !tbaa !46
  %15 = fmul double 2.000000e+00, %14
  %16 = getelementptr inbounds nuw %struct.PJ_LP, ptr %4, i32 0, i32 1
  store double %15, ptr %16, align 8, !tbaa !47
  %17 = getelementptr inbounds nuw %struct.PJ_XY, ptr %5, i32 0, i32 1
  %18 = load double, ptr %17, align 8, !tbaa !44
  %19 = getelementptr inbounds nuw %struct.PJ_XY, ptr %5, i32 0, i32 1
  %20 = load double, ptr %19, align 8, !tbaa !44
  %21 = fneg double %18
  %22 = call double @llvm.fmuladd.f64(double %21, double %20, double 1.000000e+00)
  %23 = getelementptr inbounds nuw %struct.PJ_XY, ptr %5, i32 0, i32 1
  store double %22, ptr %23, align 8, !tbaa !44
  %24 = getelementptr inbounds nuw %struct.PJ_XY, ptr %5, i32 0, i32 1
  %25 = load double, ptr %24, align 8, !tbaa !44
  %26 = call double @llvm.fabs.f64(double %25)
  %27 = fcmp olt double %26, 0x3EB0C6F7A0B5ED8D
  br i1 %27, label %28, label %29

28:                                               ; preds = %3
  br label %37

29:                                               ; preds = %3
  %30 = getelementptr inbounds nuw %struct.PJ_XY, ptr %5, i32 0, i32 0
  %31 = load double, ptr %30, align 8, !tbaa !49
  %32 = getelementptr inbounds nuw %struct.PJ_XY, ptr %5, i32 0, i32 1
  %33 = load double, ptr %32, align 8, !tbaa !44
  %34 = call double @sqrt(double noundef %33) #6, !tbaa !46
  %35 = fmul double 8.191520e-01, %34
  %36 = fdiv double %31, %35
  br label %37

37:                                               ; preds = %29, %28
  %38 = phi double [ 0.000000e+00, %28 ], [ %36, %29 ]
  %39 = getelementptr inbounds nuw %struct.PJ_LP, ptr %4, i32 0, i32 0
  store double %38, ptr %39, align 8, !tbaa !50
  %40 = load { double, double }, ptr %4, align 8
  ret { double, double } %40
}

; Function Attrs: mustprogress uwtable
define internal { double, double } @_ZL15fahey_s_forward5PJ_LPP8PJconsts(double %0, double %1, ptr noundef %2) #0 {
  %4 = alloca %struct.PJ_XY, align 8
  %5 = alloca %struct.PJ_LP, align 8
  %6 = alloca ptr, align 8
  %7 = getelementptr inbounds nuw { double, double }, ptr %5, i32 0, i32 0
  store double %0, ptr %7, align 8
  %8 = getelementptr inbounds nuw { double, double }, ptr %5, i32 0, i32 1
  store double %1, ptr %8, align 8
  store ptr %2, ptr %6, align 8, !tbaa !3
  call void @llvm.memset.p0.i64(ptr align 8 %4, i8 0, i64 16, i1 false)
  %9 = getelementptr inbounds nuw %struct.PJ_LP, ptr %5, i32 0, i32 1
  %10 = load double, ptr %9, align 8, !tbaa !47
  %11 = fmul double 5.000000e-01, %10
  %12 = call double @tan(double noundef %11) #6, !tbaa !46
  %13 = getelementptr inbounds nuw %struct.PJ_XY, ptr %4, i32 0, i32 0
  store double %12, ptr %13, align 8, !tbaa !49
  %14 = getelementptr inbounds nuw %struct.PJ_XY, ptr %4, i32 0, i32 0
  %15 = load double, ptr %14, align 8, !tbaa !49
  %16 = fmul double 0x3FFD1B3F20A73F75, %15
  %17 = getelementptr inbounds nuw %struct.PJ_XY, ptr %4, i32 0, i32 1
  store double %16, ptr %17, align 8, !tbaa !44
  %18 = getelementptr inbounds nuw %struct.PJ_LP, ptr %5, i32 0, i32 0
  %19 = load double, ptr %18, align 8, !tbaa !50
  %20 = fmul double 8.191520e-01, %19
  %21 = getelementptr inbounds nuw %struct.PJ_XY, ptr %4, i32 0, i32 0
  %22 = load double, ptr %21, align 8, !tbaa !49
  %23 = getelementptr inbounds nuw %struct.PJ_XY, ptr %4, i32 0, i32 0
  %24 = load double, ptr %23, align 8, !tbaa !49
  %25 = fneg double %22
  %26 = call double @llvm.fmuladd.f64(double %25, double %24, double 1.000000e+00)
  %27 = call noundef double @_Z5asqrtd(double noundef %26)
  %28 = fmul double %20, %27
  %29 = getelementptr inbounds nuw %struct.PJ_XY, ptr %4, i32 0, i32 0
  store double %28, ptr %29, align 8, !tbaa !49
  %30 = load { double, double }, ptr %4, align 8
  ret { double, double } %30
}

; Function Attrs: nocallback nofree nounwind willreturn memory(argmem: write)
declare void @llvm.memset.p0.i64(ptr writeonly captures(none), i8, i64, i1 immarg) #3

; Function Attrs: nounwind
declare double @atan(double noundef) #4

; Function Attrs: nocallback nofree nosync nounwind speculatable willreturn memory(none)
declare double @llvm.fmuladd.f64(double, double, double) #5

; Function Attrs: nocallback nofree nosync nounwind speculatable willreturn memory(none)
declare double @llvm.fabs.f64(double) #5

; Function Attrs: nounwind
declare double @sqrt(double noundef) #4

; Function Attrs: nounwind
declare double @tan(double noundef) #4

declare noundef double @_Z5asqrtd(double noundef) #2


!llvm.module.flags = !{!0, !1, !2}

!0 = !{i32 1, !"wchar_size", i32 4}
!1 = !{i32 8, !"PIC Level", i32 2}
!2 = !{i32 7, !"uwtable", i32 2}
!3 = !{!4, !4, i64 0}
!4 = !{!"p1 _ZTS8PJconsts", !5, i64 0}
!5 = !{!"any pointer", !6, i64 0}
!6 = !{!"omnipotent char", !7, i64 0}
!7 = !{!"Simple C++ TBAA"}
!8 = !{!9, !11, i64 8}
!9 = !{!"_ZTS8PJconsts", !10, i64 0, !11, i64 8, !11, i64 16, !12, i64 24, !11, i64 32, !4, i64 40, !11, i64 48, !11, i64 56, !11, i64 64, !11, i64 72, !13, i64 80, !5, i64 88, !14, i64 96, !5, i64 104, !5, i64 112, !5, i64 120, !5, i64 128, !5, i64 136, !5, i64 144, !5, i64 152, !5, i64 160, !15, i64 168, !15, i64 176, !15, i64 184, !15, i64 192, !15, i64 200, !15, i64 208, !15, i64 216, !15, i64 224, !15, i64 232, !15, i64 240, !15, i64 248, !15, i64 256, !15, i64 264, !15, i64 272, !15, i64 280, !15, i64 288, !15, i64 296, !15, i64 304, !15, i64 312, !15, i64 320, !15, i64 328, !15, i64 336, !14, i64 344, !14, i64 348, !14, i64 352, !14, i64 356, !14, i64 360, !14, i64 364, !14, i64 368, !14, i64 372, !14, i64 376, !16, i64 380, !16, i64 384, !4, i64 392, !4, i64 400, !4, i64 408, !4, i64 416, !4, i64 424, !4, i64 432, !15, i64 440, !15, i64 448, !15, i64 456, !15, i64 464, !15, i64 472, !15, i64 480, !15, i64 488, !15, i64 496, !15, i64 504, !15, i64 512, !15, i64 520, !14, i64 528, !6, i64 536, !14, i64 592, !5, i64 600, !5, i64 608, !15, i64 616, !15, i64 624, !14, i64 632, !6, i64 636, !17, i64 640, !22, i64 656, !15, i64 664, !22, i64 672, !23, i64 680, !23, i64 712, !23, i64 744, !22, i64 776, !26, i64 784, !31, i64 808, !32, i64 816, !14, i64 840, !22, i64 844, !22, i64 845, !22, i64 846, !4, i64 848}
!10 = !{!"p1 _ZTS6pj_ctx", !5, i64 0}
!11 = !{!"p1 omnipotent char", !5, i64 0}
!12 = !{!"p1 _ZTS8ARG_list", !5, i64 0}
!13 = !{!"p1 _ZTS13geod_geodesic", !5, i64 0}
!14 = !{!"int", !6, i64 0}
!15 = !{!"double", !6, i64 0}
!16 = !{!"_ZTS11pj_io_units", !6, i64 0}
!17 = !{!"_ZTSSt10shared_ptrIN5osgeo4proj4util10BaseObjectEE", !18, i64 0}
!18 = !{!"_ZTSSt12__shared_ptrIN5osgeo4proj4util10BaseObjectELN9__gnu_cxx12_Lock_policyE2EE", !19, i64 0, !20, i64 8}
!19 = !{!"p1 _ZTSN5osgeo4proj4util10BaseObjectE", !5, i64 0}
!20 = !{!"_ZTSSt14__shared_countILN9__gnu_cxx12_Lock_policyE2EE", !21, i64 0}
!21 = !{!"p1 _ZTSSt16_Sp_counted_baseILN9__gnu_cxx12_Lock_policyE2EE", !5, i64 0}
!22 = !{!"bool", !6, i64 0}
!23 = !{!"_ZTSNSt7__cxx1112basic_stringIcSt11char_traitsIcESaIcEEE", !24, i64 0, !25, i64 8, !6, i64 16}
!24 = !{!"_ZTSNSt7__cxx1112basic_stringIcSt11char_traitsIcESaIcEE12_Alloc_hiderE", !11, i64 0}
!25 = !{!"long", !6, i64 0}
!26 = !{!"_ZTSSt6vectorIN5osgeo4proj9operation15GridDescriptionESaIS3_EE", !27, i64 0}
!27 = !{!"_ZTSSt12_Vector_baseIN5osgeo4proj9operation15GridDescriptionESaIS3_EE", !28, i64 0}
!28 = !{!"_ZTSNSt12_Vector_baseIN5osgeo4proj9operation15GridDescriptionESaIS3_EE12_Vector_implE", !29, i64 0}
!29 = !{!"_ZTSNSt12_Vector_baseIN5osgeo4proj9operation15GridDescriptionESaIS3_EE17_Vector_impl_dataE", !30, i64 0, !30, i64 8, !30, i64 16}
!30 = !{!"p1 _ZTSN5osgeo4proj9operation15GridDescriptionE", !5, i64 0}
!31 = !{!"_ZTS7PJ_TYPE", !6, i64 0}
!32 = !{!"_ZTSSt6vectorI16PJCoordOperationSaIS0_EE", !33, i64 0}
!33 = !{!"_ZTSSt12_Vector_baseI16PJCoordOperationSaIS0_EE", !34, i64 0}
!34 = !{!"_ZTSNSt12_Vector_baseI16PJCoordOperationSaIS0_EE12_Vector_implE", !35, i64 0}
!35 = !{!"_ZTSNSt12_Vector_baseI16PJCoordOperationSaIS0_EE17_Vector_impl_dataE", !36, i64 0, !36, i64 8, !36, i64 16}
!36 = !{!"p1 _ZTS16PJCoordOperation", !5, i64 0}
!37 = !{!9, !11, i64 16}
!38 = !{!9, !14, i64 360}
!39 = !{!9, !16, i64 380}
!40 = !{!9, !16, i64 384}
!41 = !{!9, !15, i64 216}
!42 = !{!9, !5, i64 112}
!43 = !{!9, !5, i64 104}
!44 = !{!45, !15, i64 8}
!45 = !{!"_ZTS5PJ_XY", !15, i64 0, !15, i64 8}
!46 = !{!14, !14, i64 0}
!47 = !{!48, !15, i64 8}
!48 = !{!"_ZTS5PJ_LP", !15, i64 0, !15, i64 8}
!49 = !{!45, !15, i64 0}
!50 = !{!48, !15, i64 0}
